; Function Attrs: mustprogress nofree norecurse nosync nounwind willreturn memory(read, inaccessiblemem: none) uwtable
define internal noundef ptr @_ZNK9grpc_core12_GLOBAL__N_119XdsClusterManagerLb12ClusterChild6Helper13parent_helperEv(ptr noundef nonnull readonly align 8 captures(none) dereferenceable(16) %0) unnamed_addr #30 align 2 {
  %2 = getelementptr inbounds nuw i8, ptr %0, i64 8
  %.val1 = load ptr, ptr %2, align 8, !tbaa !157
  %3 = getelementptr inbounds nuw i8, ptr %.val1, i64 16
  %.val = load ptr, ptr %3, align 8, !tbaa !151
  %4 = getelementptr inbounds nuw i8, ptr %.val, i64 40
  %5 = load ptr, ptr %4, align 8, !tbaa !84
  ret ptr %5
}